; Function Attrs: mustprogress nounwind uwtable
define void @_ZN5Ipopt11TNLPReducerD2Ev(ptr nocapture noundef nonnull align 8 dereferenceable(136) %0) unnamed_addr #2 align 2 personality ptr @__gxx_personality_v0 {
  store ptr getelementptr inbounds ({ [22 x ptr] }, ptr @_ZTVN5Ipopt11TNLPReducerE, i64 0, i32 0, i64 2), ptr %0, align 8
  %2 = getelementptr inbounds i8, ptr %0, i64 40
  %3 = load ptr, ptr %2, align 8
  %4 = icmp eq ptr %3, null
  br i1 %4, label %6, label %5

5:                                                ; preds = %1
  tail call void @_ZdaPv(ptr noundef nonnull %3) #9
  br label %6

6:                                                ; preds = %5, %1
  %7 = getelementptr inbounds i8, ptr %0, i64 56
  %8 = load ptr, ptr %7, align 8
  %9 = icmp eq ptr %8, null
  br i1 %9, label %11, label %10

10:                                               ; preds = %6
  tail call void @_ZdaPv(ptr noundef nonnull %8) #9
  br label %11

11:                                               ; preds = %10, %6
  %12 = getelementptr inbounds i8, ptr %0, i64 80
  %13 = load ptr, ptr %12, align 8
  %14 = icmp eq ptr %13, null
  br i1 %14, label %16, label %15

15:                                               ; preds = %11
  tail call void @_ZdaPv(ptr noundef nonnull %13) #9
  br label %16

16:                                               ; preds = %15, %11
  %17 = getelementptr inbounds i8, ptr %0, i64 96
  %18 = load ptr, ptr %17, align 8
  %19 = icmp eq ptr %18, null
  br i1 %19, label %21, label %20

20:                                               ; preds = %16
  tail call void @_ZdaPv(ptr noundef nonnull %18) #9
  br label %21

21:                                               ; preds = %20, %16
  %22 = getelementptr inbounds i8, ptr %0, i64 112
  %23 = load ptr, ptr %22, align 8
  %24 = icmp eq ptr %23, null
  br i1 %24, label %26, label %25

25:                                               ; preds = %21
  tail call void @_ZdaPv(ptr noundef nonnull %23) #9
  br label %26

26:                                               ; preds = %25, %21
  %27 = getelementptr inbounds i8, ptr %0, i64 128
  %28 = load ptr, ptr %27, align 8
  %29 = icmp eq ptr %28, null
  br i1 %29, label %31, label %30

30:                                               ; preds = %26
  tail call void @_ZdaPv(ptr noundef nonnull %28) #9
  br label %31

31:                                               ; preds = %30, %26
  %32 = getelementptr inbounds i8, ptr %0, i64 16
  %33 = load ptr, ptr %32, align 8
  %.not.i.i = icmp eq ptr %33, null
  br i1 %.not.i.i, label %_ZN5Ipopt8SmartPtrINS_4TNLPEED2Ev.exit, label %34

34:                                               ; preds = %31
  %35 = getelementptr inbounds i8, ptr %33, i64 8
  %36 = load i32, ptr %35, align 8
  %37 = add nsw i32 %36, -1
  store i32 %37, ptr %35, align 8
  %38 = load ptr, ptr %32, align 8
  %39 = getelementptr inbounds i8, ptr %38, i64 8
  %40 = load i32, ptr %39, align 8
  %41 = icmp eq i32 %40, 0
  br i1 %41, label %42, label %_ZN5Ipopt8SmartPtrINS_4TNLPEED2Ev.exit

42:                                               ; preds = %34
  %43 = load ptr, ptr %38, align 8
  %44 = getelementptr inbounds i8, ptr %43, i64 8
  %45 = load ptr, ptr %44, align 8
  tail call void %45(ptr noundef nonnull align 8 dereferenceable(12) %38) #7
  br label %_ZN5Ipopt8SmartPtrINS_4TNLPEED2Ev.exit

_ZN5Ipopt8SmartPtrINS_4TNLPEED2Ev.exit:           ; preds = %31, %34, %42
  store ptr getelementptr inbounds ({ [4 x ptr] }, ptr @_ZTVN5Ipopt16ReferencedObjectE, i64 0, i32 0, i64 2), ptr %0, align 8
  ret void
}